target datalayout = "e-m:e-p270:32:32-p271:32:32-p272:64:64-i64:64-i128:128-f80:128-n8:16:32:64-S128"
target triple = "x86_64-pc-linux-gnu"

%struct.jv = type { i8, i8, i16, i32, %union.anon }
%union.anon = type { ptr }

@.str.6 = private unnamed_addr constant [37 x i8] c"Cannot check whether %s has a %s key\00", align 1

; Function Attrs: nounwind uwtable
define internal i32 @jv_is_valid(i64 %0, ptr %1) #0 {
  %3 = alloca %struct.jv, align 8
  %4 = getelementptr inbounds nuw { i64, ptr }, ptr %3, i32 0, i32 0
  store i64 %0, ptr %4, align 8
  %5 = getelementptr inbounds nuw { i64, ptr }, ptr %3, i32 0, i32 1
  store ptr %1, ptr %5, align 8
  %6 = getelementptr inbounds nuw { i64, ptr }, ptr %3, i32 0, i32 0
  %7 = load i64, ptr %6, align 8
  %8 = getelementptr inbounds nuw { i64, ptr }, ptr %3, i32 0, i32 1
  %9 = load ptr, ptr %8, align 8
  %10 = call i32 @jv_get_kind(i64 %7, ptr %9)
  %11 = icmp ne i32 %10, 0
  %12 = zext i1 %11 to i32
  ret i32 %12
}

; Function Attrs: nounwind uwtable
define dso_local { i64, ptr } @jv_has(i64 %0, ptr %1, i64 %2, ptr %3) #0 {
  %5 = alloca %struct.jv, align 8
  %6 = alloca %struct.jv, align 8
  %7 = alloca %struct.jv, align 8
  %8 = alloca %struct.jv, align 8
  %9 = alloca %struct.jv, align 8
  %10 = alloca %struct.jv, align 8
  %11 = alloca %struct.jv, align 8
  %12 = alloca %struct.jv, align 8
  %13 = alloca %struct.jv, align 8
  %14 = alloca %struct.jv, align 8
  %15 = alloca %struct.jv, align 8
  %16 = getelementptr inbounds nuw { i64, ptr }, ptr %6, i32 0, i32 0
  store i64 %0, ptr %16, align 8
  %17 = getelementptr inbounds nuw { i64, ptr }, ptr %6, i32 0, i32 1
  store ptr %1, ptr %17, align 8
  %18 = getelementptr inbounds nuw { i64, ptr }, ptr %7, i32 0, i32 0
  store i64 %2, ptr %18, align 8
  %19 = getelementptr inbounds nuw { i64, ptr }, ptr %7, i32 0, i32 1
  store ptr %3, ptr %19, align 8
  %20 = getelementptr inbounds nuw { i64, ptr }, ptr %6, i32 0, i32 0
  %21 = load i64, ptr %20, align 8
  %22 = getelementptr inbounds nuw { i64, ptr }, ptr %6, i32 0, i32 1
  %23 = load ptr, ptr %22, align 8
  %24 = call i32 @jv_get_kind(i64 %21, ptr %23)
  %25 = icmp eq i32 %24, 1
  br i1 %25, label %26, label %40

26:                                               ; preds = %4
  %27 = getelementptr inbounds nuw { i64, ptr }, ptr %6, i32 0, i32 0
  %28 = load i64, ptr %27, align 8
  %29 = getelementptr inbounds nuw { i64, ptr }, ptr %6, i32 0, i32 1
  %30 = load ptr, ptr %29, align 8
  call void @jv_free(i64 %28, ptr %30)
  %31 = getelementptr inbounds nuw { i64, ptr }, ptr %7, i32 0, i32 0
  %32 = load i64, ptr %31, align 8
  %33 = getelementptr inbounds nuw { i64, ptr }, ptr %7, i32 0, i32 1
  %34 = load ptr, ptr %33, align 8
  call void @jv_free(i64 %32, ptr %34)
  call void @llvm.lifetime.start.p0(i64 16, ptr %8) #6
  %35 = call { i64, ptr } @jv_false()
  %36 = getelementptr inbounds nuw { i64, ptr }, ptr %8, i32 0, i32 0
  %37 = extractvalue { i64, ptr } %35, 0
  store i64 %37, ptr %36, align 8
  %38 = getelementptr inbounds nuw { i64, ptr }, ptr %8, i32 0, i32 1
  %39 = extractvalue { i64, ptr } %35, 1
  store ptr %39, ptr %38, align 8
  call void @llvm.memcpy.p0.p0.i64(ptr align 8 %5, ptr align 8 %8, i64 16, i1 false), !tbaa.struct !4
  call void @llvm.lifetime.end.p0(i64 16, ptr %8) #6
  br label %185

40:                                               ; preds = %4
  %41 = getelementptr inbounds nuw { i64, ptr }, ptr %6, i32 0, i32 0
  %42 = load i64, ptr %41, align 8
  %43 = getelementptr inbounds nuw { i64, ptr }, ptr %6, i32 0, i32 1
  %44 = load ptr, ptr %43, align 8
  %45 = call i32 @jv_get_kind(i64 %42, ptr %44)
  %46 = icmp eq i32 %45, 7
  br i1 %46, label %47, label %82

47:                                               ; preds = %40
  %48 = getelementptr inbounds nuw { i64, ptr }, ptr %7, i32 0, i32 0
  %49 = load i64, ptr %48, align 8
  %50 = getelementptr inbounds nuw { i64, ptr }, ptr %7, i32 0, i32 1
  %51 = load ptr, ptr %50, align 8
  %52 = call i32 @jv_get_kind(i64 %49, ptr %51)
  %53 = icmp eq i32 %52, 5
  br i1 %53, label %54, label %82

54:                                               ; preds = %47
  call void @llvm.lifetime.start.p0(i64 16, ptr %9) #6
  %55 = getelementptr inbounds nuw { i64, ptr }, ptr %6, i32 0, i32 0
  %56 = load i64, ptr %55, align 8
  %57 = getelementptr inbounds nuw { i64, ptr }, ptr %6, i32 0, i32 1
  %58 = load ptr, ptr %57, align 8
  %59 = getelementptr inbounds nuw { i64, ptr }, ptr %7, i32 0, i32 0
  %60 = load i64, ptr %59, align 8
  %61 = getelementptr inbounds nuw { i64, ptr }, ptr %7, i32 0, i32 1
  %62 = load ptr, ptr %61, align 8
  %63 = call { i64, ptr } @jv_object_get(i64 %56, ptr %58, i64 %60, ptr %62)
  %64 = getelementptr inbounds nuw { i64, ptr }, ptr %9, i32 0, i32 0
  %65 = extractvalue { i64, ptr } %63, 0
  store i64 %65, ptr %64, align 8
  %66 = getelementptr inbounds nuw { i64, ptr }, ptr %9, i32 0, i32 1
  %67 = extractvalue { i64, ptr } %63, 1
  store ptr %67, ptr %66, align 8
  call void @llvm.lifetime.start.p0(i64 16, ptr %10) #6
  %68 = getelementptr inbounds nuw { i64, ptr }, ptr %9, i32 0, i32 0
  %69 = load i64, ptr %68, align 8
  %70 = getelementptr inbounds nuw { i64, ptr }, ptr %9, i32 0, i32 1
  %71 = load ptr, ptr %70, align 8
  %72 = call i32 @jv_is_valid(i64 %69, ptr %71)
  %73 = call { i64, ptr } @jv_bool(i32 noundef %72)
  %74 = getelementptr inbounds nuw { i64, ptr }, ptr %10, i32 0, i32 0
  %75 = extractvalue { i64, ptr } %73, 0
  store i64 %75, ptr %74, align 8
  %76 = getelementptr inbounds nuw { i64, ptr }, ptr %10, i32 0, i32 1
  %77 = extractvalue { i64, ptr } %73, 1
  store ptr %77, ptr %76, align 8
  call void @llvm.memcpy.p0.p0.i64(ptr align 8 %5, ptr align 8 %10, i64 16, i1 false), !tbaa.struct !4
  call void @llvm.lifetime.end.p0(i64 16, ptr %10) #6
  %78 = getelementptr inbounds nuw { i64, ptr }, ptr %9, i32 0, i32 0
  %79 = load i64, ptr %78, align 8
  %80 = getelementptr inbounds nuw { i64, ptr }, ptr %9, i32 0, i32 1
  %81 = load ptr, ptr %80, align 8
  call void @jv_free(i64 %79, ptr %81)
  call void @llvm.lifetime.end.p0(i64 16, ptr %9) #6
  br label %184

82:                                               ; preds = %47, %40
  %83 = getelementptr inbounds nuw { i64, ptr }, ptr %6, i32 0, i32 0
  %84 = load i64, ptr %83, align 8
  %85 = getelementptr inbounds nuw { i64, ptr }, ptr %6, i32 0, i32 1
  %86 = load ptr, ptr %85, align 8
  %87 = call i32 @jv_get_kind(i64 %84, ptr %86)
  %88 = icmp eq i32 %87, 6
  br i1 %88, label %89, label %148

89:                                               ; preds = %82
  %90 = getelementptr inbounds nuw { i64, ptr }, ptr %7, i32 0, i32 0
  %91 = load i64, ptr %90, align 8
  %92 = getelementptr inbounds nuw { i64, ptr }, ptr %7, i32 0, i32 1
  %93 = load ptr, ptr %92, align 8
  %94 = call i32 @jv_get_kind(i64 %91, ptr %93)
  %95 = icmp eq i32 %94, 4
  br i1 %95, label %96, label %148

96:                                               ; preds = %89
  %97 = getelementptr inbounds nuw { i64, ptr }, ptr %7, i32 0, i32 0
  %98 = load i64, ptr %97, align 8
  %99 = getelementptr inbounds nuw { i64, ptr }, ptr %7, i32 0, i32 1
  %100 = load ptr, ptr %99, align 8
  %101 = call i32 @jvp_number_is_nan(i64 %98, ptr %100)
  %102 = icmp ne i32 %101, 0
  br i1 %102, label %103, label %113

103:                                              ; preds = %96
  %104 = getelementptr inbounds nuw { i64, ptr }, ptr %6, i32 0, i32 0
  %105 = load i64, ptr %104, align 8
  %106 = getelementptr inbounds nuw { i64, ptr }, ptr %6, i32 0, i32 1
  %107 = load ptr, ptr %106, align 8
  call void @jv_free(i64 %105, ptr %107)
  call void @llvm.lifetime.start.p0(i64 16, ptr %11) #6
  %108 = call { i64, ptr } @jv_false()
  %109 = getelementptr inbounds nuw { i64, ptr }, ptr %11, i32 0, i32 0
  %110 = extractvalue { i64, ptr } %108, 0
  store i64 %110, ptr %109, align 8
  %111 = getelementptr inbounds nuw { i64, ptr }, ptr %11, i32 0, i32 1
  %112 = extractvalue { i64, ptr } %108, 1
  store ptr %112, ptr %111, align 8
  call void @llvm.memcpy.p0.p0.i64(ptr align 8 %5, ptr align 8 %11, i64 16, i1 false), !tbaa.struct !4
  call void @llvm.lifetime.end.p0(i64 16, ptr %11) #6
  br label %143

113:                                              ; preds = %96
  call void @llvm.lifetime.start.p0(i64 16, ptr %12) #6
  %114 = getelementptr inbounds nuw { i64, ptr }, ptr %7, i32 0, i32 0
  %115 = load i64, ptr %114, align 8
  %116 = getelementptr inbounds nuw { i64, ptr }, ptr %7, i32 0, i32 1
  %117 = load ptr, ptr %116, align 8
  %118 = call double @jv_number_value(i64 %115, ptr %117)
  %119 = fptosi double %118 to i32
  %120 = getelementptr inbounds nuw { i64, ptr }, ptr %6, i32 0, i32 0
  %121 = load i64, ptr %120, align 8
  %122 = getelementptr inbounds nuw { i64, ptr }, ptr %6, i32 0, i32 1
  %123 = load ptr, ptr %122, align 8
  %124 = call { i64, ptr } @jv_array_get(i64 %121, ptr %123, i32 noundef %119)
  %125 = getelementptr inbounds nuw { i64, ptr }, ptr %12, i32 0, i32 0
  %126 = extractvalue { i64, ptr } %124, 0
  store i64 %126, ptr %125, align 8
  %127 = getelementptr inbounds nuw { i64, ptr }, ptr %12, i32 0, i32 1
  %128 = extractvalue { i64, ptr } %124, 1
  store ptr %128, ptr %127, align 8
  call void @llvm.lifetime.start.p0(i64 16, ptr %13) #6
  %129 = getelementptr inbounds nuw { i64, ptr }, ptr %12, i32 0, i32 0
  %130 = load i64, ptr %129, align 8
  %131 = getelementptr inbounds nuw { i64, ptr }, ptr %12, i32 0, i32 1
  %132 = load ptr, ptr %131, align 8
  %133 = call i32 @jv_is_valid(i64 %130, ptr %132)
  %134 = call { i64, ptr } @jv_bool(i32 noundef %133)
  %135 = getelementptr inbounds nuw { i64, ptr }, ptr %13, i32 0, i32 0
  %136 = extractvalue { i64, ptr } %134, 0
  store i64 %136, ptr %135, align 8
  %137 = getelementptr inbounds nuw { i64, ptr }, ptr %13, i32 0, i32 1
  %138 = extractvalue { i64, ptr } %134, 1
  store ptr %138, ptr %137, align 8
  call void @llvm.memcpy.p0.p0.i64(ptr align 8 %5, ptr align 8 %13, i64 16, i1 false), !tbaa.struct !4
  call void @llvm.lifetime.end.p0(i64 16, ptr %13) #6
  %139 = getelementptr inbounds nuw { i64, ptr }, ptr %12, i32 0, i32 0
  %140 = load i64, ptr %139, align 8
  %141 = getelementptr inbounds nuw { i64, ptr }, ptr %12, i32 0, i32 1
  %142 = load ptr, ptr %141, align 8
  call void @jv_free(i64 %140, ptr %142)
  call void @llvm.lifetime.end.p0(i64 16, ptr %12) #6
  br label %143

143:                                              ; preds = %113, %103
  %144 = getelementptr inbounds nuw { i64, ptr }, ptr %7, i32 0, i32 0
  %145 = load i64, ptr %144, align 8
  %146 = getelementptr inbounds nuw { i64, ptr }, ptr %7, i32 0, i32 1
  %147 = load ptr, ptr %146, align 8
  call void @jv_free(i64 %145, ptr %147)
  br label %183

148:                                              ; preds = %89, %82
  call void @llvm.lifetime.start.p0(i64 16, ptr %14) #6
  %149 = getelementptr inbounds nuw { i64, ptr }, ptr %6, i32 0, i32 0
  %150 = load i64, ptr %149, align 8
  %151 = getelementptr inbounds nuw { i64, ptr }, ptr %6, i32 0, i32 1
  %152 = load ptr, ptr %151, align 8
  %153 = call i32 @jv_get_kind(i64 %150, ptr %152)
  %154 = call ptr @jv_kind_name(i32 noundef %153)
  %155 = getelementptr inbounds nuw { i64, ptr }, ptr %7, i32 0, i32 0
  %156 = load i64, ptr %155, align 8
  %157 = getelementptr inbounds nuw { i64, ptr }, ptr %7, i32 0, i32 1
  %158 = load ptr, ptr %157, align 8
  %159 = call i32 @jv_get_kind(i64 %156, ptr %158)
  %160 = call ptr @jv_kind_name(i32 noundef %159)
  %161 = call { i64, ptr } (ptr, ...) @jv_string_fmt(ptr noundef @.str.6, ptr noundef %154, ptr noundef %160)
  %162 = getelementptr inbounds nuw { i64, ptr }, ptr %15, i32 0, i32 0
  %163 = extractvalue { i64, ptr } %161, 0
  store i64 %163, ptr %162, align 8
  %164 = getelementptr inbounds nuw { i64, ptr }, ptr %15, i32 0, i32 1
  %165 = extractvalue { i64, ptr } %161, 1
  store ptr %165, ptr %164, align 8
  %166 = getelementptr inbounds nuw { i64, ptr }, ptr %15, i32 0, i32 0
  %167 = load i64, ptr %166, align 8
  %168 = getelementptr inbounds nuw { i64, ptr }, ptr %15, i32 0, i32 1
  %169 = load ptr, ptr %168, align 8
  %170 = call { i64, ptr } @jv_invalid_with_msg(i64 %167, ptr %169)
  %171 = getelementptr inbounds nuw { i64, ptr }, ptr %14, i32 0, i32 0
  %172 = extractvalue { i64, ptr } %170, 0
  store i64 %172, ptr %171, align 8
  %173 = getelementptr inbounds nuw { i64, ptr }, ptr %14, i32 0, i32 1
  %174 = extractvalue { i64, ptr } %170, 1
  store ptr %174, ptr %173, align 8
  call void @llvm.memcpy.p0.p0.i64(ptr align 8 %5, ptr align 8 %14, i64 16, i1 false), !tbaa.struct !4
  call void @llvm.lifetime.end.p0(i64 16, ptr %14) #6
  %175 = getelementptr inbounds nuw { i64, ptr }, ptr %6, i32 0, i32 0
  %176 = load i64, ptr %175, align 8
  %177 = getelementptr inbounds nuw { i64, ptr }, ptr %6, i32 0, i32 1
  %178 = load ptr, ptr %177, align 8
  call void @jv_free(i64 %176, ptr %178)
  %179 = getelementptr inbounds nuw { i64, ptr }, ptr %7, i32 0, i32 0
  %180 = load i64, ptr %179, align 8
  %181 = getelementptr inbounds nuw { i64, ptr }, ptr %7, i32 0, i32 1
  %182 = load ptr, ptr %181, align 8
  call void @jv_free(i64 %180, ptr %182)
  br label %183

183:                                              ; preds = %148, %143
  br label %184

184:                                              ; preds = %183, %54
  br label %185

185:                                              ; preds = %184, %26
  %186 = load { i64, ptr }, ptr %5, align 8
  ret { i64, ptr } %186
}