; Function Attrs: nounwind uwtable
define dso_local { i64, ptr } @jv_has(i64 %0, ptr %1, i64 %2, ptr %3) local_unnamed_addr #0 {
  %5 = tail call i32 @jv_get_kind(i64 %0, ptr %1) #6
  %6 = icmp eq i32 %5, 1
  br i1 %6, label %7, label %9

7:                                                ; preds = %4
  tail call void @jv_free(i64 %0, ptr %1) #6
  tail call void @jv_free(i64 %2, ptr %3) #6
  %8 = tail call { i64, ptr } @jv_false() #6
  br label %53

9:                                                ; preds = %4
  %10 = tail call i32 @jv_get_kind(i64 %0, ptr %1) #6
  %11 = icmp eq i32 %10, 7
  br i1 %11, label %12, label %23

12:                                               ; preds = %9
  %13 = tail call i32 @jv_get_kind(i64 %2, ptr %3) #6
  %14 = icmp eq i32 %13, 5
  br i1 %14, label %15, label %23

15:                                               ; preds = %12
  %16 = tail call { i64, ptr } @jv_object_get(i64 %0, ptr %1, i64 %2, ptr %3) #6
  %17 = extractvalue { i64, ptr } %16, 0
  %18 = extractvalue { i64, ptr } %16, 1
  %19 = tail call i32 @jv_get_kind(i64 %17, ptr %18) #6
  %20 = icmp ne i32 %19, 0
  %21 = zext i1 %20 to i32
  %22 = tail call { i64, ptr } @jv_bool(i32 noundef %21) #6
  tail call void @jv_free(i64 %17, ptr %18) #6
  br label %53

23:                                               ; preds = %12, %9
  %24 = tail call i32 @jv_get_kind(i64 %0, ptr %1) #6
  %25 = icmp eq i32 %24, 6
  br i1 %25, label %26, label %44

26:                                               ; preds = %23
  %27 = tail call i32 @jv_get_kind(i64 %2, ptr %3) #6
  %28 = icmp eq i32 %27, 4
  br i1 %28, label %29, label %44

29:                                               ; preds = %26
  %30 = tail call i32 @jvp_number_is_nan(i64 %2, ptr %3) #6
  %.not = icmp eq i32 %30, 0
  br i1 %.not, label %33, label %31

31:                                               ; preds = %29
  tail call void @jv_free(i64 %0, ptr %1) #6
  %32 = tail call { i64, ptr } @jv_false() #6
  br label %43

33:                                               ; preds = %29
  %34 = tail call double @jv_number_value(i64 %2, ptr %3) #6
  %35 = fptosi double %34 to i32
  %36 = tail call { i64, ptr } @jv_array_get(i64 %0, ptr %1, i32 noundef %35) #6
  %37 = extractvalue { i64, ptr } %36, 0
  %38 = extractvalue { i64, ptr } %36, 1
  %39 = tail call i32 @jv_get_kind(i64 %37, ptr %38) #6
  %40 = icmp ne i32 %39, 0
  %41 = zext i1 %40 to i32
  %42 = tail call { i64, ptr } @jv_bool(i32 noundef %41) #6
  tail call void @jv_free(i64 %37, ptr %38) #6
  br label %43

43:                                               ; preds = %33, %31
  %.pn = phi { i64, ptr } [ %32, %31 ], [ %42, %33 ]
  tail call void @jv_free(i64 %2, ptr %3) #6
  br label %53

44:                                               ; preds = %26, %23
  %45 = tail call i32 @jv_get_kind(i64 %0, ptr %1) #6
  %46 = tail call ptr @jv_kind_name(i32 noundef %45) #6
  %47 = tail call i32 @jv_get_kind(i64 %2, ptr %3) #6
  %48 = tail call ptr @jv_kind_name(i32 noundef %47) #6
  %49 = tail call { i64, ptr } (ptr, ...) @jv_string_fmt(ptr noundef nonnull @.str.6, ptr noundef %46, ptr noundef %48) #6
  %50 = extractvalue { i64, ptr } %49, 0
  %51 = extractvalue { i64, ptr } %49, 1
  %52 = tail call { i64, ptr } @jv_invalid_with_msg(i64 %50, ptr %51) #6
  tail call void @jv_free(i64 %0, ptr %1) #6
  tail call void @jv_free(i64 %2, ptr %3) #6
  br label %53

53:                                               ; preds = %15, %44, %43, %7
  %.pn54 = phi { i64, ptr } [ %8, %7 ], [ %22, %15 ], [ %.pn, %43 ], [ %52, %44 ]
  ret { i64, ptr } %.pn54
}